; ModuleID = '12/937.c'
source_filename = "12/937.c"
target datalayout = "e-m:e-p270:32:32-p271:32:32-p272:64:64-i64:64-f80:128-n8:16:32:64-S128"
target triple = "x86_64-pc-linux-gnu"

@.str = private unnamed_addr constant [3 x i8] c"%d\00", align 1
@.str.1 = private unnamed_addr constant [4 x i8] c"%d\0A\00", align 1

; Function Attrs: noinline nounwind uwtable
define dso_local i32 @main(i32 %0, i8** %1) #0 {
  %3 = alloca i32, align 4
  %4 = alloca i32, align 4
  %5 = alloca i8**, align 8
  %6 = alloca i32, align 4
  %7 = alloca i32, align 4
  %8 = alloca i32, align 4
  %9 = alloca [17 x i32], align 16
  %10 = alloca i32, align 4
  store i32 0, i32* %3, align 4
  store i32 %0, i32* %4, align 4
  store i8** %1, i8*** %5, align 8
  store i32 0, i32* %10, align 4
  store i32 0, i32* %6, align 4
  br label %11

11:                                               ; preds = %86, %2
  %12 = load i32, i32* %6, align 4
  %13 = icmp slt i32 %12, 17
  br i1 %13, label %14, label %89

14:                                               ; preds = %11
  %15 = load i32, i32* %6, align 4
  %16 = sext i32 %15 to i64
  %17 = getelementptr inbounds [17 x i32], [17 x i32]* %9, i64 0, i64 %16
  %18 = call i32 (i8*, ...) @__isoc99_scanf(i8* getelementptr inbounds ([3 x i8], [3 x i8]* @.str, i64 0, i64 0), i32* %17)
  %19 = load i32, i32* %6, align 4
  %20 = sext i32 %19 to i64
  %21 = getelementptr inbounds [17 x i32], [17 x i32]* %9, i64 0, i64 %20
  %22 = load i32, i32* %21, align 4
  %23 = icmp eq i32 %22, -1
  br i1 %23, label %24, label %25

24:                                               ; preds = %14
  br label %89

25:                                               ; preds = %14
  %26 = load i32, i32* %6, align 4
  %27 = icmp sgt i32 %26, 0
  br i1 %27, label %28, label %84

28:                                               ; preds = %25
  %29 = load i32, i32* %6, align 4
  %30 = sext i32 %29 to i64
  %31 = getelementptr inbounds [17 x i32], [17 x i32]* %9, i64 0, i64 %30
  %32 = load i32, i32* %31, align 4
  %33 = icmp sgt i32 %32, 0
  br i1 %33, label %34, label %69

34:                                               ; preds = %28
  store i32 0, i32* %7, align 4
  br label %35

35:                                               ; preds = %65, %34
  %36 = load i32, i32* %7, align 4
  %37 = load i32, i32* %6, align 4
  %38 = icmp slt i32 %36, %37
  br i1 %38, label %39, label %68

39:                                               ; preds = %35
  %40 = load i32, i32* %7, align 4
  %41 = sext i32 %40 to i64
  %42 = getelementptr inbounds [17 x i32], [17 x i32]* %9, i64 0, i64 %41
  %43 = load i32, i32* %42, align 4
  %44 = mul nsw i32 2, %43
  %45 = load i32, i32* %6, align 4
  %46 = sext i32 %45 to i64
  %47 = getelementptr inbounds [17 x i32], [17 x i32]* %9, i64 0, i64 %46
  %48 = load i32, i32* %47, align 4
  %49 = icmp eq i32 %44, %48
  br i1 %49, label %61, label %50

50:                                               ; preds = %39
  %51 = load i32, i32* %6, align 4
  %52 = sext i32 %51 to i64
  %53 = getelementptr inbounds [17 x i32], [17 x i32]* %9, i64 0, i64 %52
  %54 = load i32, i32* %53, align 4
  %55 = mul nsw i32 2, %54
  %56 = load i32, i32* %7, align 4
  %57 = sext i32 %56 to i64
  %58 = getelementptr inbounds [17 x i32], [17 x i32]* %9, i64 0, i64 %57
  %59 = load i32, i32* %58, align 4
  %60 = icmp eq i32 %55, %59
  br i1 %60, label %61, label %64

61:                                               ; preds = %50, %39
  %62 = load i32, i32* %10, align 4
  %63 = add nsw i32 %62, 1
  store i32 %63, i32* %10, align 4
  br label %64

64:                                               ; preds = %61, %50
  br label %65

65:                                               ; preds = %64
  %66 = load i32, i32* %7, align 4
  %67 = add nsw i32 %66, 1
  store i32 %67, i32* %7, align 4
  br label %35

68:                                               ; preds = %35
  br label %83

69:                                               ; preds = %28
  %70 = load i32, i32* %10, align 4
  %71 = call i32 (i8*, ...) @printf(i8* getelementptr inbounds ([4 x i8], [4 x i8]* @.str.1, i64 0, i64 0), i32 %70)
  store i32 0, i32* %10, align 4
  store i32 0, i32* %6, align 4
  store i32 0, i32* %7, align 4
  store i32 0, i32* %8, align 4
  br label %72

72:                                               ; preds = %79, %69
  %73 = load i32, i32* %8, align 4
  %74 = icmp slt i32 %73, 16
  br i1 %74, label %75, label %82

75:                                               ; preds = %72
  %76 = load i32, i32* %8, align 4
  %77 = sext i32 %76 to i64
  %78 = getelementptr inbounds [17 x i32], [17 x i32]* %9, i64 0, i64 %77
  store i32 -2, i32* %78, align 4
  br label %79

79:                                               ; preds = %75
  %80 = load i32, i32* %8, align 4
  %81 = add nsw i32 %80, 1
  store i32 %81, i32* %8, align 4
  br label %72

82:                                               ; preds = %72
  br label %83

83:                                               ; preds = %82, %68
  br label %84

84:                                               ; preds = %83, %25
  br label %85

85:                                               ; preds = %84
  br label %86

86:                                               ; preds = %85
  %87 = load i32, i32* %6, align 4
  %88 = add nsw i32 %87, 1
  store i32 %88, i32* %6, align 4
  br label %11

89:                                               ; preds = %24, %11
  ret i32 0
}

declare dso_local i32 @__isoc99_scanf(i8*, ...) #1

declare dso_local i32 @printf(i8*, ...) #1


!llvm.module.flags = !{!0}
!llvm.ident = !{!1}

!0 = !{i32 1, !"wchar_size", i32 4}
!1 = !{!"clang version 10.0.0-4ubuntu1 "}
